; Function Attrs: nounwind uwtable
define dso_local range(i32 0, 34) i32 @Curl_http_firstwrite(ptr noundef %0) local_unnamed_addr #0 {
  %2 = getelementptr inbounds nuw i8, ptr %0, i64 24
  %3 = load ptr, ptr %2, align 8, !tbaa !77
  %4 = getelementptr inbounds nuw i8, ptr %0, i64 232
  %5 = getelementptr inbounds nuw i8, ptr %0, i64 424
  %6 = load ptr, ptr %5, align 8, !tbaa !131
  %.not = icmp eq ptr %6, null
  br i1 %.not, label %33, label %7

7:                                                ; preds = %1
  %8 = getelementptr inbounds nuw i8, ptr %3, i64 920
  %9 = load i64, ptr %8, align 8
  %10 = and i64 %9, 32
  %.not44 = icmp eq i64 %10, 0
  br i1 %.not44, label %18, label %11

11:                                               ; preds = %7
  %12 = getelementptr inbounds nuw i8, ptr %0, i64 312
  %13 = load i32, ptr %12, align 8, !tbaa !198
  %14 = and i32 %13, -2
  store i32 %14, ptr %12, align 8, !tbaa !198
  %15 = getelementptr inbounds nuw i8, ptr %0, i64 449
  %16 = load i32, ptr %15, align 1
  %17 = or i32 %16, 2
  store i32 %17, ptr %15, align 1
  br label %94

18:                                               ; preds = %7
  %19 = getelementptr inbounds nuw i8, ptr %0, i64 449
  %20 = load i32, ptr %19, align 1
  %21 = or i32 %20, 1024
  store i32 %21, ptr %19, align 1
  %22 = getelementptr inbounds nuw i8, ptr %0, i64 2562
  %23 = load i64, ptr %22, align 2
  %24 = and i64 %23, 134217728
  %.not46 = icmp eq i64 %24, 0
  br i1 %.not46, label %33, label %25

25:                                               ; preds = %18
  %26 = getelementptr inbounds nuw i8, ptr %0, i64 4712
  %27 = load ptr, ptr %26, align 8, !tbaa !128
  %.not47 = icmp eq ptr %27, null
  br i1 %.not47, label %32, label %28

28:                                               ; preds = %25
  %29 = getelementptr inbounds nuw i8, ptr %27, i64 8
  %30 = load i32, ptr %29, align 8, !tbaa !129
  %31 = icmp sgt i32 %30, 0
  br i1 %31, label %32, label %33

32:                                               ; preds = %28, %25
  tail call void (ptr, ptr, ...) @Curl_infof(ptr noundef nonnull %0, ptr noundef nonnull @.str.65) #11
  br label %33

33:                                               ; preds = %18, %28, %32, %1
  %34 = getelementptr inbounds nuw i8, ptr %0, i64 4352
  %35 = load i64, ptr %34, align 8, !tbaa !133
  %.not48 = icmp eq i64 %35, 0
  br i1 %.not48, label %67, label %36

36:                                               ; preds = %33
  %37 = getelementptr inbounds nuw i8, ptr %0, i64 449
  %38 = load i32, ptr %37, align 1
  %39 = and i32 %38, 4
  %.not49 = icmp eq i32 %39, 0
  br i1 %.not49, label %40, label %67

40:                                               ; preds = %36
  %41 = getelementptr inbounds nuw i8, ptr %0, i64 4874
  %42 = load i8, ptr %41, align 2, !tbaa !92
  %43 = icmp eq i8 %42, 0
  %44 = and i32 %38, 1024
  %.not50 = icmp eq i32 %44, 0
  %or.cond = and i1 %.not50, %43
  br i1 %or.cond, label %45, label %67

45:                                               ; preds = %40
  %46 = load i64, ptr %4, align 8, !tbaa !199
  %47 = icmp eq i64 %46, %35
  br i1 %47, label %48, label %66

48:                                               ; preds = %45
  %49 = getelementptr inbounds nuw i8, ptr %0, i64 2562
  %50 = load i64, ptr %49, align 2
  %51 = and i64 %50, 134217728
  %.not52 = icmp eq i64 %51, 0
  br i1 %.not52, label %60, label %52

52:                                               ; preds = %48
  %53 = getelementptr inbounds nuw i8, ptr %0, i64 4712
  %54 = load ptr, ptr %53, align 8, !tbaa !128
  %.not53 = icmp eq ptr %54, null
  br i1 %.not53, label %59, label %55

55:                                               ; preds = %52
  %56 = getelementptr inbounds nuw i8, ptr %54, i64 8
  %57 = load i32, ptr %56, align 8, !tbaa !129
  %58 = icmp sgt i32 %57, 0
  br i1 %58, label %59, label %60

59:                                               ; preds = %55, %52
  tail call void (ptr, ptr, ...) @Curl_infof(ptr noundef nonnull %0, ptr noundef nonnull @.str.66) #11
  br label %60

60:                                               ; preds = %59, %55, %48
  tail call void @Curl_conncontrol(ptr noundef %3, i32 noundef 2) #11
  %61 = getelementptr inbounds nuw i8, ptr %0, i64 312
  %62 = load i32, ptr %61, align 8, !tbaa !198
  %63 = and i32 %62, -2
  store i32 %63, ptr %61, align 8, !tbaa !198
  %64 = load i32, ptr %37, align 1
  %65 = or i32 %64, 2
  store i32 %65, ptr %37, align 1
  br label %94

66:                                               ; preds = %45
  tail call void (ptr, ptr, ...) @Curl_failf(ptr noundef nonnull %0, ptr noundef nonnull @.str.67) #11
  br label %94

67:                                               ; preds = %40, %36, %33
  %68 = getelementptr inbounds nuw i8, ptr %0, i64 1320
  %69 = load i8, ptr %68, align 8, !tbaa !152
  %.not54 = icmp eq i8 %69, 0
  br i1 %.not54, label %94, label %70

70:                                               ; preds = %67
  %71 = getelementptr inbounds nuw i8, ptr %0, i64 4344
  %72 = load ptr, ptr %71, align 8, !tbaa !196
  %.not55 = icmp eq ptr %72, null
  br i1 %.not55, label %73, label %94

73:                                               ; preds = %70
  %74 = getelementptr inbounds nuw i8, ptr %0, i64 408
  %75 = load i64, ptr %74, align 8, !tbaa !200
  %76 = tail call zeroext i1 @Curl_meets_timecondition(ptr noundef nonnull %0, i64 noundef %75) #11
  br i1 %76, label %94, label %77

77:                                               ; preds = %73
  %78 = getelementptr inbounds nuw i8, ptr %0, i64 449
  %79 = load i32, ptr %78, align 1
  %80 = or i32 %79, 2
  store i32 %80, ptr %78, align 1
  %81 = getelementptr inbounds nuw i8, ptr %0, i64 4888
  store i32 304, ptr %81, align 8, !tbaa !201
  %82 = getelementptr inbounds nuw i8, ptr %0, i64 2562
  %83 = load i64, ptr %82, align 2
  %84 = and i64 %83, 134217728
  %.not57 = icmp eq i64 %84, 0
  br i1 %.not57, label %93, label %85

85:                                               ; preds = %77
  %86 = getelementptr inbounds nuw i8, ptr %0, i64 4712
  %87 = load ptr, ptr %86, align 8, !tbaa !128
  %.not58 = icmp eq ptr %87, null
  br i1 %.not58, label %92, label %88

88:                                               ; preds = %85
  %89 = getelementptr inbounds nuw i8, ptr %87, i64 8
  %90 = load i32, ptr %89, align 8, !tbaa !129
  %91 = icmp sgt i32 %90, 0
  br i1 %91, label %92, label %93

92:                                               ; preds = %88, %85
  tail call void (ptr, ptr, ...) @Curl_infof(ptr noundef nonnull %0, ptr noundef nonnull @.str.68) #11
  br label %93

93:                                               ; preds = %92, %88, %77
  tail call void @Curl_conncontrol(ptr noundef %3, i32 noundef 2) #11
  br label %94

94:                                               ; preds = %67, %70, %73, %93, %66, %60, %11
  %.0 = phi i32 [ 0, %11 ], [ 0, %93 ], [ 0, %60 ], [ 33, %66 ], [ 0, %73 ], [ 0, %70 ], [ 0, %67 ]
  ret i32 %.0
}